target datalayout = "e-m:e-p270:32:32-p271:32:32-p272:64:64-i64:64-i128:128-f80:128-n8:16:32:64-S128"
target triple = "x86_64-pc-linux-gnu"

%class.btVector3 = type { [4 x float] }
%class.btTypedConstraint = type { ptr, %struct.btTypedObject, i32, %union.anon.0, float, i8, i8, i32, ptr, ptr, float, float, ptr }
%struct.btTypedObject = type { i32 }
%union.anon.0 = type { ptr }
%class.btTransform = type { %class.btMatrix3x3, %class.btVector3 }
%class.btMatrix3x3 = type { [3 x %class.btVector3] }
%class.btCollisionObject = type <{ ptr, %class.btTransform, %class.btTransform, %class.btVector3, %class.btVector3, %class.btVector3, i32, float, ptr, ptr, ptr, ptr, i32, i32, i32, i32, i32, float, float, float, float, float, float, float, i32, [4 x i8], ptr, i32, i32, i32, float, float, float, i32, [4 x i8], %class.btAlignedObjectArray, i32, %class.btVector3, [4 x i8] }>
%class.btAlignedObjectArray = type <{ [4 x i8], i32, i32, [4 x i8], ptr, i8, [7 x i8] }>
%class.btRigidBody = type { %class.btCollisionObject.base, %class.btMatrix3x3, %class.btVector3, %class.btVector3, float, %class.btVector3, %class.btVector3, %class.btVector3, %class.btVector3, %class.btVector3, %class.btVector3, float, float, i8, float, float, float, float, float, float, ptr, %class.btAlignedObjectArray.1, i32, i32, %class.btVector3, %class.btVector3, %class.btVector3, %class.btVector3, %class.btVector3, %class.btVector3, i32, i32 }
%class.btCollisionObject.base = type <{ ptr, %class.btTransform, %class.btTransform, %class.btVector3, %class.btVector3, %class.btVector3, i32, float, ptr, ptr, ptr, ptr, i32, i32, i32, i32, i32, float, float, float, float, float, float, float, i32, [4 x i8], ptr, i32, i32, i32, float, float, float, i32, [4 x i8], %class.btAlignedObjectArray, i32, %class.btVector3 }>
%class.btAlignedObjectArray.1 = type <{ [4 x i8], i32, i32, [4 x i8], ptr, i8, [7 x i8] }>

; Function Attrs: mustprogress nounwind uwtable
define linkonce_odr dso_local noundef nonnull align 4 dereferenceable(48) ptr @_ZNK11btRigidBody24getInvInertiaTensorWorldEv(ptr noundef nonnull align 8 dereferenceable(744) %0) #1 comdat align 2 {
  %2 = alloca ptr, align 8
  store ptr %0, ptr %2, align 8, !tbaa !14
  %3 = load ptr, ptr %2, align 8
  %4 = getelementptr inbounds nuw %class.btRigidBody, ptr %3, i32 0, i32 1
  ret ptr %4
}

; Function Attrs: mustprogress nounwind uwtable
define linkonce_odr dso_local noundef nonnull align 4 dereferenceable(64) ptr @_ZNK11btRigidBody24getCenterOfMassTransformEv(ptr noundef nonnull align 8 dereferenceable(744) %0) #1 comdat align 2 {
  %2 = alloca ptr, align 8
  store ptr %0, ptr %2, align 8, !tbaa !14
  %3 = load ptr, ptr %2, align 8
  %4 = getelementptr inbounds nuw %class.btCollisionObject, ptr %3, i32 0, i32 1
  ret ptr %4
}

; Function Attrs: mustprogress uwtable
define dso_local void @_ZN21btConeTwistConstraint8getInfo2EPN17btTypedConstraint17btConstraintInfo2E(ptr noundef nonnull align 8 dereferenceable(632) %0, ptr noundef %1) unnamed_addr #2 align 2 {
  %3 = alloca ptr, align 8
  %4 = alloca ptr, align 8
  store ptr %0, ptr %3, align 8, !tbaa !12
  store ptr %1, ptr %4, align 8, !tbaa !78
  %5 = load ptr, ptr %3, align 8
  %6 = load ptr, ptr %4, align 8, !tbaa !78
  %7 = getelementptr inbounds nuw %class.btTypedConstraint, ptr %5, i32 0, i32 8
  %8 = load ptr, ptr %7, align 8, !tbaa !66
  %9 = call noundef nonnull align 4 dereferenceable(64) ptr @_ZNK11btRigidBody24getCenterOfMassTransformEv(ptr noundef nonnull align 8 dereferenceable(744) %8)
  %10 = getelementptr inbounds nuw %class.btTypedConstraint, ptr %5, i32 0, i32 9
  %11 = load ptr, ptr %10, align 8, !tbaa !67
  %12 = call noundef nonnull align 4 dereferenceable(64) ptr @_ZNK11btRigidBody24getCenterOfMassTransformEv(ptr noundef nonnull align 8 dereferenceable(744) %11)
  %13 = getelementptr inbounds nuw %class.btTypedConstraint, ptr %5, i32 0, i32 8
  %14 = load ptr, ptr %13, align 8, !tbaa !66
  %15 = call noundef nonnull align 4 dereferenceable(48) ptr @_ZNK11btRigidBody24getInvInertiaTensorWorldEv(ptr noundef nonnull align 8 dereferenceable(744) %14)
  %16 = getelementptr inbounds nuw %class.btTypedConstraint, ptr %5, i32 0, i32 9
  %17 = load ptr, ptr %16, align 8, !tbaa !67
  %18 = call noundef nonnull align 4 dereferenceable(48) ptr @_ZNK11btRigidBody24getInvInertiaTensorWorldEv(ptr noundef nonnull align 8 dereferenceable(744) %17)
  call void @_ZN21btConeTwistConstraint18getInfo2NonVirtualEPN17btTypedConstraint17btConstraintInfo2ERK11btTransformS5_RK11btMatrix3x3S8_(ptr noundef nonnull align 8 dereferenceable(632) %5, ptr noundef %6, ptr noundef nonnull align 4 dereferenceable(64) %9, ptr noundef nonnull align 4 dereferenceable(64) %12, ptr noundef nonnull align 4 dereferenceable(48) %15, ptr noundef nonnull align 4 dereferenceable(48) %18)
  ret void
}