; Function Attrs: mustprogress uwtable
define dso_local void @_ZN21btConeTwistConstraint8getInfo2EPN17btTypedConstraint17btConstraintInfo2E(ptr noundef nonnull align 8 dereferenceable(632) initializes((524, 532), (549, 551)) %0, ptr noundef readonly captures(none) %1) unnamed_addr #0 align 2 {
  %3 = getelementptr inbounds nuw i8, ptr %0, i64 40
  %4 = load ptr, ptr %3, align 8, !tbaa !47
  %5 = getelementptr inbounds nuw i8, ptr %4, i64 8
  %6 = getelementptr inbounds nuw i8, ptr %0, i64 48
  %7 = load ptr, ptr %6, align 8, !tbaa !48
  %8 = getelementptr inbounds nuw i8, ptr %7, i64 8
  %9 = getelementptr inbounds nuw i8, ptr %4, i64 372
  %10 = getelementptr inbounds nuw i8, ptr %7, i64 372
  tail call void @_ZN21btConeTwistConstraint18getInfo2NonVirtualEPN17btTypedConstraint17btConstraintInfo2ERK11btTransformS5_RK11btMatrix3x3S8_(ptr noundef nonnull align 8 dereferenceable(632) %0, ptr noundef %1, ptr noundef nonnull align 4 dereferenceable(64) %5, ptr noundef nonnull align 4 dereferenceable(64) %8, ptr noundef nonnull align 4 dereferenceable(48) %9, ptr noundef nonnull align 4 dereferenceable(48) %10)
  ret void
}